; Function Attrs: mustprogress nounwind uwtable
define hidden noundef ptr @_ZN11OptoRuntime26class_id_load_barrier_TypeEv() local_unnamed_addr #0 align 2 {
  %1 = tail call noundef ptr @_ZN9TypeTuple6fieldsEj(i32 noundef 1) #12
  %2 = load ptr, ptr @_ZN11TypeInstPtr5KLASSE, align 8
  %3 = getelementptr inbounds i8, ptr %1, i64 40
  store ptr %2, ptr %3, align 8
  %4 = tail call noundef ptr @_ZN9TypeTuple4makeEjPPK4Type(i32 noundef 6, ptr noundef %1) #12
  %5 = tail call noundef ptr @_ZN9TypeTuple6fieldsEj(i32 noundef 0) #12
  %6 = tail call noundef ptr @_ZN9TypeTuple4makeEjPPK4Type(i32 noundef 5, ptr noundef %5) #12
  %7 = tail call noundef ptr @_ZN8TypeFunc4makeEPK9TypeTupleS2_(ptr noundef %4, ptr noundef %6) #12
  ret ptr %7
}